; Function Attrs: mustprogress uwtable
define hidden void @_ZNK4cvc58internal15NodeDfsIterable5beginEv(ptr dead_on_unwind noalias writable sret(%"class.cvc5::internal::NodeDfsIterator") align 8 %0, ptr noundef nonnull align 8 dereferenceable(48) %1) local_unnamed_addr #3 align 2 personality ptr @__gxx_personality_v0 {
  %3 = alloca %"class.cvc5::internal::NodeTemplate", align 8
  %4 = alloca %"class.std::function", align 8
  %5 = load ptr, ptr %1, align 8, !tbaa !3
  store ptr %5, ptr %3, align 8, !tbaa !3
  %6 = getelementptr inbounds nuw i8, ptr %1, i64 8
  %7 = load i32, ptr %6, align 8, !tbaa !69
  %8 = getelementptr inbounds nuw i8, ptr %4, i64 16
  %9 = getelementptr inbounds nuw i8, ptr %4, i64 24
  %10 = getelementptr inbounds nuw i8, ptr %1, i64 32
  call void @llvm.memset.p0.i64(ptr noundef nonnull align 8 dereferenceable(32) %4, i8 0, i64 32, i1 false)
  %11 = load ptr, ptr %10, align 8, !tbaa !35
  %.not.i.i.not.i = icmp eq ptr %11, null
  br i1 %.not.i.i.not.i, label %_ZNSt8functionIFbN4cvc58internal12NodeTemplateILb0EEEEEC2ERKS5_.exit, label %12

12:                                               ; preds = %2
  %13 = getelementptr inbounds nuw i8, ptr %1, i64 16
  %14 = invoke noundef zeroext i1 %11(ptr noundef nonnull align 8 dereferenceable(32) %4, ptr noundef nonnull align 8 dereferenceable(32) %13, i32 noundef 2)
          to label %15 unwind label %19

15:                                               ; preds = %12
  %16 = getelementptr inbounds nuw i8, ptr %1, i64 40
  %17 = load ptr, ptr %16, align 8, !tbaa !36
  store ptr %17, ptr %9, align 8, !tbaa !36
  %18 = load ptr, ptr %10, align 8, !tbaa !35
  store ptr %18, ptr %8, align 8, !tbaa !35
  br label %_ZNSt8functionIFbN4cvc58internal12NodeTemplateILb0EEEEEC2ERKS5_.exit

19:                                               ; preds = %12
  %20 = landingpad { ptr, i32 }
          cleanup
  %21 = load ptr, ptr %8, align 8, !tbaa !35
  %.not.i.i = icmp eq ptr %21, null
  br i1 %.not.i.i, label %.body, label %22

22:                                               ; preds = %19
  %23 = invoke noundef zeroext i1 %21(ptr noundef nonnull align 8 dereferenceable(32) %4, ptr noundef nonnull align 8 dereferenceable(32) %4, i32 noundef 3)
          to label %.body unwind label %24

24:                                               ; preds = %22
  %25 = landingpad { ptr, i32 }
          catch ptr null
  %26 = extractvalue { ptr, i32 } %25, 0
  call void @__clang_call_terminate(ptr %26) #21
  unreachable

_ZNSt8functionIFbN4cvc58internal12NodeTemplateILb0EEEEEC2ERKS5_.exit: ; preds = %15, %2
  invoke void @_ZN4cvc58internal15NodeDfsIteratorC2ENS0_12NodeTemplateILb0EEENS0_10VisitOrderESt8functionIFbS3_EE(ptr noundef nonnull align 8 dereferenceable(128) %0, ptr noundef nonnull %3, i32 noundef %7, ptr noundef nonnull %4)
          to label %27 unwind label %34

27:                                               ; preds = %_ZNSt8functionIFbN4cvc58internal12NodeTemplateILb0EEEEEC2ERKS5_.exit
  %28 = load ptr, ptr %8, align 8, !tbaa !35
  %.not.i = icmp eq ptr %28, null
  br i1 %.not.i, label %_ZNSt14_Function_baseD2Ev.exit, label %29

29:                                               ; preds = %27
  %30 = invoke noundef zeroext i1 %28(ptr noundef nonnull align 8 dereferenceable(32) %4, ptr noundef nonnull align 8 dereferenceable(32) %4, i32 noundef 3)
          to label %_ZNSt14_Function_baseD2Ev.exit unwind label %31

31:                                               ; preds = %29
  %32 = landingpad { ptr, i32 }
          catch ptr null
  %33 = extractvalue { ptr, i32 } %32, 0
  call void @__clang_call_terminate(ptr %33) #21
  unreachable

_ZNSt14_Function_baseD2Ev.exit:                   ; preds = %27, %29
  ret void

34:                                               ; preds = %_ZNSt8functionIFbN4cvc58internal12NodeTemplateILb0EEEEEC2ERKS5_.exit
  %35 = landingpad { ptr, i32 }
          cleanup
  %36 = load ptr, ptr %8, align 8, !tbaa !35
  %.not.i4 = icmp eq ptr %36, null
  br i1 %.not.i4, label %.body, label %37

37:                                               ; preds = %34
  %38 = invoke noundef zeroext i1 %36(ptr noundef nonnull align 8 dereferenceable(32) %4, ptr noundef nonnull align 8 dereferenceable(32) %4, i32 noundef 3)
          to label %.body unwind label %39

39:                                               ; preds = %37
  %40 = landingpad { ptr, i32 }
          catch ptr null
  %41 = extractvalue { ptr, i32 } %40, 0
  call void @__clang_call_terminate(ptr %41) #21
  unreachable

.body:                                            ; preds = %37, %34, %22, %19
  %.pn = phi { ptr, i32 } [ %20, %22 ], [ %20, %19 ], [ %35, %34 ], [ %35, %37 ]
  resume { ptr, i32 } %.pn
}